target datalayout = "e-m:e-p270:32:32-p271:32:32-p272:64:64-i64:64-i128:128-f80:128-n8:16:32:64-S128"
target triple = "x86_64-pc-linux-gnu"

%struct.qtest_fault = type { ptr, %struct.quic_pkt_hdr_st, %struct.ossl_qtx_iovec_st, i64, ptr, ptr, ptr, i64, i64, ptr, ptr, ptr, ptr, ptr, ptr, ptr, ptr, %struct.bio_msg_st, i64, %struct.noise_args_data_st }
%struct.quic_pkt_hdr_st = type { i32, i32, %struct.quic_conn_id_st, %struct.quic_conn_id_st, [4 x i8], ptr, i64, i64, ptr }
%struct.quic_conn_id_st = type { i8, [20 x i8] }
%struct.ossl_qtx_iovec_st = type { ptr, i64 }
%struct.bio_msg_st = type { ptr, i64, ptr, ptr, i64 }
%struct.noise_args_data_st = type { ptr, ptr, ptr, i32 }

@.str = private unnamed_addr constant [38 x i8] c"../openssl/test/helpers/quictestlib.c\00", align 1
@.str.40 = private unnamed_addr constant [60 x i8] c"qtest_fault_resize_plain_packet(fault, old_len + frame_len)\00", align 1

; Function Attrs: nounwind uwtable
define dso_local i32 @qtest_fault_resize_plain_packet(ptr noundef %0, i64 noundef %1) #0 {
  %3 = alloca i32, align 4
  %4 = alloca ptr, align 8
  %5 = alloca i64, align 8
  %6 = alloca ptr, align 8
  %7 = alloca i64, align 8
  %8 = alloca i32, align 4
  store ptr %0, ptr %4, align 8, !tbaa !33
  store i64 %1, ptr %5, align 8, !tbaa !62
  call void @llvm.lifetime.start.p0(i64 8, ptr %6) #8
  call void @llvm.lifetime.start.p0(i64 8, ptr %7) #8
  %9 = load ptr, ptr %4, align 8, !tbaa !33
  %10 = getelementptr inbounds nuw %struct.qtest_fault, ptr %9, i32 0, i32 2
  %11 = getelementptr inbounds nuw %struct.ossl_qtx_iovec_st, ptr %10, i32 0, i32 1
  %12 = load i64, ptr %11, align 8, !tbaa !88
  store i64 %12, ptr %7, align 8, !tbaa !62
  %13 = load ptr, ptr %4, align 8, !tbaa !33
  %14 = getelementptr inbounds nuw %struct.qtest_fault, ptr %13, i32 0, i32 3
  %15 = load i64, ptr %14, align 8, !tbaa !89
  %16 = icmp eq i64 %15, 0
  br i1 %16, label %17, label %18

17:                                               ; preds = %2
  store i32 0, ptr %3, align 4
  store i32 1, ptr %8, align 4
  br label %49

18:                                               ; preds = %2
  %19 = load i64, ptr %5, align 8, !tbaa !62
  %20 = load ptr, ptr %4, align 8, !tbaa !33
  %21 = getelementptr inbounds nuw %struct.qtest_fault, ptr %20, i32 0, i32 3
  %22 = load i64, ptr %21, align 8, !tbaa !89
  %23 = icmp ugt i64 %19, %22
  br i1 %23, label %24, label %25

24:                                               ; preds = %18
  store i32 0, ptr %3, align 4
  store i32 1, ptr %8, align 4
  br label %49

25:                                               ; preds = %18
  %26 = load ptr, ptr %4, align 8, !tbaa !33
  %27 = getelementptr inbounds nuw %struct.qtest_fault, ptr %26, i32 0, i32 2
  %28 = getelementptr inbounds nuw %struct.ossl_qtx_iovec_st, ptr %27, i32 0, i32 0
  %29 = load ptr, ptr %28, align 8, !tbaa !87
  store ptr %29, ptr %6, align 8, !tbaa !11
  %30 = load i64, ptr %5, align 8, !tbaa !62
  %31 = load i64, ptr %7, align 8, !tbaa !62
  %32 = icmp ugt i64 %30, %31
  br i1 %32, label %33, label %40

33:                                               ; preds = %25
  %34 = load ptr, ptr %6, align 8, !tbaa !11
  %35 = load i64, ptr %7, align 8, !tbaa !62
  %36 = getelementptr inbounds nuw i8, ptr %34, i64 %35
  %37 = load i64, ptr %5, align 8, !tbaa !62
  %38 = load i64, ptr %7, align 8, !tbaa !62
  %39 = sub i64 %37, %38
  call void @llvm.memset.p0.i64(ptr align 1 %36, i8 0, i64 %39, i1 false)
  br label %40

40:                                               ; preds = %33, %25
  %41 = load i64, ptr %5, align 8, !tbaa !62
  %42 = load ptr, ptr %4, align 8, !tbaa !33
  %43 = getelementptr inbounds nuw %struct.qtest_fault, ptr %42, i32 0, i32 2
  %44 = getelementptr inbounds nuw %struct.ossl_qtx_iovec_st, ptr %43, i32 0, i32 1
  store i64 %41, ptr %44, align 8, !tbaa !88
  %45 = load i64, ptr %5, align 8, !tbaa !62
  %46 = load ptr, ptr %4, align 8, !tbaa !33
  %47 = getelementptr inbounds nuw %struct.qtest_fault, ptr %46, i32 0, i32 1
  %48 = getelementptr inbounds nuw %struct.quic_pkt_hdr_st, ptr %47, i32 0, i32 7
  store i64 %45, ptr %48, align 8, !tbaa !106
  store i32 1, ptr %3, align 4
  store i32 1, ptr %8, align 4
  br label %49

49:                                               ; preds = %40, %24, %17
  call void @llvm.lifetime.end.p0(i64 8, ptr %7) #8
  call void @llvm.lifetime.end.p0(i64 8, ptr %6) #8
  %50 = load i32, ptr %3, align 4
  ret i32 %50
}

; Function Attrs: nounwind uwtable
define dso_local i32 @qtest_fault_prepend_frame(ptr noundef %0, ptr noundef %1, i64 noundef %2) #0 {
  %4 = alloca i32, align 4
  %5 = alloca ptr, align 8
  %6 = alloca ptr, align 8
  %7 = alloca i64, align 8
  %8 = alloca ptr, align 8
  %9 = alloca i64, align 8
  %10 = alloca i32, align 4
  store ptr %0, ptr %5, align 8, !tbaa !33
  store ptr %1, ptr %6, align 8, !tbaa !11
  store i64 %2, ptr %7, align 8, !tbaa !62
  call void @llvm.lifetime.start.p0(i64 8, ptr %8) #8
  call void @llvm.lifetime.start.p0(i64 8, ptr %9) #8
  %11 = load ptr, ptr %5, align 8, !tbaa !33
  %12 = getelementptr inbounds nuw %struct.qtest_fault, ptr %11, i32 0, i32 3
  %13 = load i64, ptr %12, align 8, !tbaa !89
  %14 = icmp eq i64 %13, 0
  br i1 %14, label %15, label %16

15:                                               ; preds = %3
  store i32 0, ptr %4, align 4
  store i32 1, ptr %10, align 4
  br label %44

16:                                               ; preds = %3
  %17 = load ptr, ptr %5, align 8, !tbaa !33
  %18 = getelementptr inbounds nuw %struct.qtest_fault, ptr %17, i32 0, i32 2
  %19 = getelementptr inbounds nuw %struct.ossl_qtx_iovec_st, ptr %18, i32 0, i32 0
  %20 = load ptr, ptr %19, align 8, !tbaa !87
  store ptr %20, ptr %8, align 8, !tbaa !11
  %21 = load ptr, ptr %5, align 8, !tbaa !33
  %22 = getelementptr inbounds nuw %struct.qtest_fault, ptr %21, i32 0, i32 2
  %23 = getelementptr inbounds nuw %struct.ossl_qtx_iovec_st, ptr %22, i32 0, i32 1
  %24 = load i64, ptr %23, align 8, !tbaa !88
  store i64 %24, ptr %9, align 8, !tbaa !62
  %25 = load ptr, ptr %5, align 8, !tbaa !33
  %26 = load i64, ptr %9, align 8, !tbaa !62
  %27 = load i64, ptr %7, align 8, !tbaa !62
  %28 = add i64 %26, %27
  %29 = call i32 @qtest_fault_resize_plain_packet(ptr noundef %25, i64 noundef %28)
  %30 = icmp ne i32 %29, 0
  %31 = zext i1 %30 to i32
  %32 = call i32 @test_true(ptr noundef @.str, i32 noundef 856, ptr noundef @.str.40, i32 noundef %31)
  %33 = icmp ne i32 %32, 0
  br i1 %33, label %35, label %34

34:                                               ; preds = %16
  store i32 0, ptr %4, align 4
  store i32 1, ptr %10, align 4
  br label %44

35:                                               ; preds = %16
  %36 = load ptr, ptr %8, align 8, !tbaa !11
  %37 = load i64, ptr %7, align 8, !tbaa !62
  %38 = getelementptr inbounds nuw i8, ptr %36, i64 %37
  %39 = load ptr, ptr %8, align 8, !tbaa !11
  %40 = load i64, ptr %9, align 8, !tbaa !62
  call void @llvm.memmove.p0.p0.i64(ptr align 1 %38, ptr align 1 %39, i64 %40, i1 false)
  %41 = load ptr, ptr %8, align 8, !tbaa !11
  %42 = load ptr, ptr %6, align 8, !tbaa !11
  %43 = load i64, ptr %7, align 8, !tbaa !62
  call void @llvm.memcpy.p0.p0.i64(ptr align 1 %41, ptr align 1 %42, i64 %43, i1 false)
  store i32 1, ptr %4, align 4
  store i32 1, ptr %10, align 4
  br label %44

44:                                               ; preds = %35, %34, %15
  call void @llvm.lifetime.end.p0(i64 8, ptr %9) #8
  call void @llvm.lifetime.end.p0(i64 8, ptr %8) #8
  %45 = load i32, ptr %4, align 4
  ret i32 %45
}