; Function Attrs: nounwind uwtable
define dso_local range(i32 0, 2) i32 @qtest_fault_prepend_frame(ptr noundef captures(none) %0, ptr noundef readonly captures(none) %1, i64 noundef %2) local_unnamed_addr #0 {
  %4 = getelementptr inbounds nuw i8, ptr %0, i64 112
  %5 = load i64, ptr %4, align 8, !tbaa !69
  %6 = icmp eq i64 %5, 0
  br i1 %6, label %23, label %7

7:                                                ; preds = %3
  %8 = getelementptr inbounds nuw i8, ptr %0, i64 96
  %9 = load ptr, ptr %8, align 8, !tbaa !62
  %10 = getelementptr inbounds nuw i8, ptr %0, i64 104
  %11 = load i64, ptr %10, align 8, !tbaa !68
  %12 = add i64 %11, %2
  %13 = icmp ugt i64 %12, %5
  br i1 %13, label %qtest_fault_resize_plain_packet.exit, label %14

14:                                               ; preds = %7
  %15 = icmp ugt i64 %12, %11
  br i1 %15, label %16, label %18

16:                                               ; preds = %14
  %17 = getelementptr inbounds nuw i8, ptr %9, i64 %11
  tail call void @llvm.memset.p0.i64(ptr align 1 %17, i8 0, i64 %2, i1 false)
  br label %18

18:                                               ; preds = %16, %14
  store i64 %12, ptr %10, align 8, !tbaa !68
  %19 = getelementptr inbounds nuw i8, ptr %0, i64 80
  store i64 %12, ptr %19, align 8, !tbaa !78
  br label %qtest_fault_resize_plain_packet.exit

qtest_fault_resize_plain_packet.exit:             ; preds = %7, %18
  %.0.i = phi i32 [ 1, %18 ], [ 0, %7 ]
  %20 = tail call i32 @test_true(ptr noundef nonnull @.str, i32 noundef 856, ptr noundef nonnull @.str.40, i32 noundef %.0.i) #10
  %.not = icmp eq i32 %20, 0
  br i1 %.not, label %23, label %21

21:                                               ; preds = %qtest_fault_resize_plain_packet.exit
  %22 = getelementptr inbounds nuw i8, ptr %9, i64 %2
  tail call void @llvm.memmove.p0.p0.i64(ptr align 1 %22, ptr align 1 %9, i64 %11, i1 false)
  tail call void @llvm.memcpy.p0.p0.i64(ptr align 1 %9, ptr align 1 %1, i64 %2, i1 false)
  br label %23

23:                                               ; preds = %qtest_fault_resize_plain_packet.exit, %3, %21
  %.0 = phi i32 [ 1, %21 ], [ 0, %3 ], [ 0, %qtest_fault_resize_plain_packet.exit ]
  ret i32 %.0
}